; Function Attrs: mustprogress nofree nounwind willreturn memory(argmem: read) uwtable
define dso_local noundef zeroext i1 @_ZNK4llvm9MCAsmInfo26shouldOmitSectionDirectiveENS_9StringRefE(ptr nocapture noundef nonnull readonly align 8 dereferenceable(484) %0, ptr nocapture readonly %1, i64 %2) unnamed_addr #8 align 2 {
  switch i64 %2, label %_ZN4llvmeqENS_9StringRefES0_.exit.thread [
    i64 5, label %_ZN4llvmeqENS_9StringRefES0_.exit
    i64 4, label %_ZN4llvmeqENS_9StringRefES0_.exit15
  ]

_ZN4llvmeqENS_9StringRefES0_.exit:                ; preds = %3
  %bcmp.i = tail call i32 @bcmp(ptr noundef nonnull dereferenceable(5) %1, ptr noundef nonnull dereferenceable(5) @.str.30, i64 5)
  %4 = icmp eq i32 %bcmp.i, 0
  br i1 %4, label %_ZN4llvmeqENS_9StringRefES0_.exit.thread, label %_ZN4llvmeqENS_9StringRefES0_.exit11

_ZN4llvmeqENS_9StringRefES0_.exit11:              ; preds = %_ZN4llvmeqENS_9StringRefES0_.exit
  %bcmp.i10 = tail call i32 @bcmp(ptr noundef nonnull dereferenceable(5) %1, ptr noundef nonnull dereferenceable(5) @.str.31, i64 5)
  %5 = icmp eq i32 %bcmp.i10, 0
  br label %_ZN4llvmeqENS_9StringRefES0_.exit.thread

_ZN4llvmeqENS_9StringRefES0_.exit15:              ; preds = %3
  %bcmp.i14 = tail call i32 @bcmp(ptr %1, ptr nonnull @.str.32, i64 %2)
  %6 = icmp eq i32 %bcmp.i14, 0
  br i1 %6, label %_ZN4llvmeqENS_9StringRefES0_.exit15.thread, label %_ZN4llvmeqENS_9StringRefES0_.exit.thread

_ZN4llvmeqENS_9StringRefES0_.exit15.thread:       ; preds = %_ZN4llvmeqENS_9StringRefES0_.exit15
  %7 = getelementptr inbounds nuw i8, ptr %0, i64 337
  %8 = load i8, ptr %7, align 1
  %9 = trunc i8 %8 to i1
  %10 = xor i1 %9, true
  br label %_ZN4llvmeqENS_9StringRefES0_.exit.thread

_ZN4llvmeqENS_9StringRefES0_.exit.thread:         ; preds = %_ZN4llvmeqENS_9StringRefES0_.exit11, %3, %_ZN4llvmeqENS_9StringRefES0_.exit15, %_ZN4llvmeqENS_9StringRefES0_.exit15.thread, %_ZN4llvmeqENS_9StringRefES0_.exit
  %11 = phi i1 [ true, %_ZN4llvmeqENS_9StringRefES0_.exit ], [ false, %_ZN4llvmeqENS_9StringRefES0_.exit15 ], [ %10, %_ZN4llvmeqENS_9StringRefES0_.exit15.thread ], [ false, %3 ], [ %5, %_ZN4llvmeqENS_9StringRefES0_.exit11 ]
  ret i1 %11
}